target datalayout = "e-m:e-p270:32:32-p271:32:32-p272:64:64-i64:64-i128:128-f80:128-n8:16:32:64-S128"
target triple = "x86_64-unknown-linux-gnu"

module asm ".section\09\22.initcall5.init\22, \22a\22\09\09"
module asm "__initcall__kmod_proc__289_49_proc_uptime_init5:\09\09\09"
module asm ".long\09proc_uptime_init - .\09"
module asm ".previous\09\09\09\09\09"

%struct.cpumask = type { [1 x i64] }
%struct.kernel_cpustat = type { [10 x i64] }
%struct.pcpu_hot = type { %union.anon.13 }
%union.anon.13 = type { %struct.anon.14, [16 x i8] }
%struct.anon.14 = type { ptr, i32, i32, i64, i64, ptr, i16, i8 }
%struct.timespec64 = type { i64, i64 }

@__UNIQUE_ID___addressable_proc_uptime_init290 = internal global ptr @proc_uptime_init, section ".discard.addressable", align 8
@.str = private unnamed_addr constant [7 x i8] c"uptime\00", align 1
@__cpu_possible_mask = external dso_local local_unnamed_addr global %struct.cpumask, align 8
@.str.1 = private unnamed_addr constant [21 x i8] c"%lu.%02lu %lu.%02lu\0A\00", align 1
@kernel_cpustat = external dso_local global %struct.kernel_cpustat, section ".data..percpu", align 8
@__per_cpu_offset = external dso_local local_unnamed_addr global [64 x i64], align 16
@pcpu_hot = external dso_local global %struct.pcpu_hot, section ".data..percpu..shared_aligned", align 64
@llvm.compiler.used = appending global [1 x ptr] [ptr @__UNIQUE_ID___addressable_proc_uptime_init290], section "llvm.metadata"

; Function Attrs: cold fn_ret_thunk_extern nounwind null_pointer_is_valid optsize
define internal noundef i32 @proc_uptime_init() #0 section ".init.text" align 16 {
  %1 = tail call ptr @proc_create_single_data(ptr noundef nonnull @.str, i16 noundef zeroext 0, ptr noundef null, ptr noundef nonnull @uptime_proc_show, ptr noundef null) #6
  %2 = getelementptr inbounds i8, ptr %1, i64 170
  %3 = load i8, ptr %2, align 2
  %4 = or i8 %3, 1
  store i8 %4, ptr %2, align 2
  ret i32 0
}

; Function Attrs: nocallback nofree nosync nounwind willreturn memory(argmem: readwrite)
declare void @llvm.lifetime.start.p0(i64 immarg, ptr nocapture) #1

; Function Attrs: null_pointer_is_valid
declare dso_local ptr @proc_create_single_data(ptr noundef, i16 noundef zeroext, ptr noundef, ptr noundef, ptr noundef) local_unnamed_addr #2

; Function Attrs: fn_ret_thunk_extern nounwind null_pointer_is_valid
define internal noundef i32 @uptime_proc_show(ptr noundef %0, ptr nocapture readnone %1) #3 align 16 {
  %3 = alloca %struct.timespec64, align 8
  %4 = alloca %struct.kernel_cpustat, align 8
  br label %5

5:                                                ; preds = %21, %2
  %6 = phi i64 [ 0, %2 ], [ %28, %21 ]
  %7 = phi i64 [ 0, %2 ], [ %29, %21 ]
  %8 = and i64 %7, 4294967295
  %9 = icmp ugt i64 %8, 63
  br i1 %9, label %17, label %10, !prof !5

10:                                               ; preds = %5
  %11 = load i64, ptr @__cpu_possible_mask, align 8
  %12 = shl nsw i64 -1, %8
  %13 = and i64 %11, %12
  %14 = icmp eq i64 %13, 0
  br i1 %14, label %17, label %15

15:                                               ; preds = %10
  %16 = call i64 asm "rep; bsf $1,$0", "=r,rm,~{dirflag},~{fpsr},~{flags}"(i64 %13) #7, !srcloc !6
  br label %17

17:                                               ; preds = %15, %10, %5
  %18 = phi i64 [ 64, %5 ], [ %16, %15 ], [ 64, %10 ]
  %19 = trunc i64 %18 to i32
  %20 = icmp ult i32 %19, 64
  br i1 %20, label %21, label %30

21:                                               ; preds = %17
  call void @llvm.lifetime.start.p0(i64 80, ptr nonnull %4) #6
  call void @llvm.memset.p0.i64(ptr noundef nonnull align 8 dereferenceable(80) %4, i8 0, i64 80, i1 false), !annotation !7
  %22 = and i64 %18, 4294967295
  %23 = getelementptr [64 x i64], ptr @__per_cpu_offset, i64 0, i64 %22
  %24 = load i64, ptr %23, align 8
  %25 = add i64 %24, ptrtoint (ptr @kernel_cpustat to i64)
  %26 = inttoptr i64 %25 to ptr
  call void @llvm.memcpy.p0.p0.i64(ptr noundef nonnull align 8 dereferenceable(80) %4, ptr noundef align 8 dereferenceable(80) %26, i64 80, i1 false)
  %27 = call i64 @get_idle_time(ptr noundef nonnull %4, i32 noundef %19) #6
  %28 = add i64 %27, %6
  call void @llvm.lifetime.end.p0(i64 80, ptr nonnull %4) #6
  %29 = add i64 %18, 1
  br label %5, !llvm.loop !8

30:                                               ; preds = %17
  %31 = call i64 @ktime_get_with_offset(i32 noundef 1) #6
  %32 = call { i64, i64 } @ns_to_timespec64(i64 noundef %31) #6
  %33 = extractvalue { i64, i64 } %32, 0
  %34 = extractvalue { i64, i64 } %32, 1
  %35 = call i64 asm "movq %gs:${1:P}, $0", "=r,p,~{dirflag},~{fpsr},~{flags}"(ptr nonnull @pcpu_hot) #8, !srcloc !11
  %36 = inttoptr i64 %35 to ptr
  %37 = getelementptr inbounds i8, ptr %36, i64 1872
  %38 = load ptr, ptr %37, align 16
  %39 = getelementptr inbounds i8, ptr %38, i64 48
  %40 = load ptr, ptr %39, align 8
  %41 = getelementptr inbounds i8, ptr %40, i64 56
  %42 = load i64, ptr %41, align 8
  %43 = getelementptr inbounds i8, ptr %40, i64 64
  %44 = load i64, ptr %43, align 8
  call void @llvm.lifetime.start.p0(i64 16, ptr nonnull %3)
  call void @llvm.memset.p0.i64(ptr noundef nonnull align 8 dereferenceable(16) %3, i8 0, i64 16, i1 false), !annotation !7
  %45 = add i64 %42, %33
  %46 = add i64 %44, %34
  call void @set_normalized_timespec64(ptr noundef nonnull %3, i64 noundef %45, i64 noundef %46) #6
  %47 = load i64, ptr %3, align 8
  %48 = getelementptr inbounds i8, ptr %3, i64 8
  %49 = load i64, ptr %48, align 8
  call void @llvm.lifetime.end.p0(i64 16, ptr nonnull %3)
  %50 = urem i64 %6, 1000000000
  %51 = trunc i64 %50 to i32
  %52 = udiv i64 %6, 1000000000
  %53 = sdiv i64 %49, 10000000
  %54 = udiv i32 %51, 10000000
  %55 = zext nneg i32 %54 to i64
  call void (ptr, ptr, ...) @seq_printf(ptr noundef %0, ptr noundef nonnull @.str.1, i64 noundef %47, i64 noundef %53, i64 noundef %52, i64 noundef %55) #6
  ret i32 0
}

; Function Attrs: nocallback nofree nosync nounwind willreturn memory(argmem: readwrite)
declare void @llvm.lifetime.end.p0(i64 immarg, ptr nocapture) #1

; Function Attrs: nocallback nofree nounwind willreturn memory(argmem: write)
declare void @llvm.memset.p0.i64(ptr nocapture writeonly, i8, i64, i1 immarg) #4

; Function Attrs: null_pointer_is_valid
declare dso_local i64 @get_idle_time(ptr noundef, i32 noundef) local_unnamed_addr #2

; Function Attrs: null_pointer_is_valid
declare dso_local void @seq_printf(ptr noundef, ptr noundef, ...) local_unnamed_addr #2

; Function Attrs: nocallback nofree nounwind willreturn memory(argmem: readwrite)
declare void @llvm.memcpy.p0.p0.i64(ptr noalias nocapture writeonly, ptr noalias nocapture readonly, i64, i1 immarg) #5

; Function Attrs: null_pointer_is_valid
declare dso_local { i64, i64 } @ns_to_timespec64(i64 noundef) local_unnamed_addr #2

; Function Attrs: null_pointer_is_valid
declare dso_local i64 @ktime_get_with_offset(i32 noundef) local_unnamed_addr #2

; Function Attrs: null_pointer_is_valid
declare dso_local void @set_normalized_timespec64(ptr noundef, i64 noundef, i64 noundef) local_unnamed_addr #2


!llvm.module.flags = !{!0, !1, !2, !3, !4}

!0 = !{i32 1, !"wchar_size", i32 2}
!1 = !{i32 8, !"cf-protection-branch", i32 1}
!2 = !{i32 4, !"function_return_thunk_extern", i32 1}
!3 = !{i32 4, !"indirect_branch_cs_prefix", i32 1}
!4 = !{i32 4, !"SkipRaxSetup", i32 1}
!5 = !{!"branch_weights", i32 1, i32 2000}
!6 = !{i64 1057243}
!7 = !{!"auto-init"}
!8 = distinct !{!8, !9, !10}
!9 = !{!"llvm.loop.mustprogress"}
!10 = !{!"llvm.loop.unroll.disable"}
!11 = !{i64 2148123248}
