; ModuleID = 'bench/linux/original/uptime.ll'
source_filename = "bench/linux/original/uptime.ll"
target datalayout = "e-m:e-p270:32:32-p271:32:32-p272:64:64-i64:64-i128:128-f80:128-n8:16:32:64-S128"
target triple = "x86_64-unknown-linux-gnu"

module asm ".section\09\22.initcall5.init\22, \22a\22\09\09"
module asm "__initcall__kmod_proc__289_49_proc_uptime_init5:\09\09\09"
module asm ".long\09proc_uptime_init - .\09"
module asm ".previous\09\09\09\09\09"

%struct.cpumask = type { [1 x i64] }
%struct.kernel_cpustat = type { [10 x i64] }
%struct.pcpu_hot = type { %union.anon.13 }
%union.anon.13 = type { %struct.anon.14, [16 x i8] }
%struct.anon.14 = type { ptr, i32, i32, i64, i64, ptr, i16, i8 }
%struct.timespec64 = type { i64, i64 }

@__UNIQUE_ID___addressable_proc_uptime_init290 = internal global ptr @proc_uptime_init, section ".discard.addressable", align 8
@.str = private unnamed_addr constant [7 x i8] c"uptime\00", align 1
@__cpu_possible_mask = external dso_local local_unnamed_addr global %struct.cpumask, align 8
@.str.1 = private unnamed_addr constant [21 x i8] c"%lu.%02lu %lu.%02lu\0A\00", align 1
@kernel_cpustat = external dso_local global %struct.kernel_cpustat, section ".data..percpu", align 8
@__per_cpu_offset = external dso_local local_unnamed_addr global [64 x i64], align 16
@pcpu_hot = external dso_local global %struct.pcpu_hot, section ".data..percpu..shared_aligned", align 64
@llvm.compiler.used = appending global [1 x ptr] [ptr @__UNIQUE_ID___addressable_proc_uptime_init290], section "llvm.metadata"

; Function Attrs: cold fn_ret_thunk_extern nounwind null_pointer_is_valid optsize
define internal noundef i32 @proc_uptime_init() #0 section ".init.text" align 16 {
  %1 = tail call ptr @proc_create_single_data(ptr noundef nonnull @.str, i16 noundef zeroext 0, ptr noundef null, ptr noundef nonnull @uptime_proc_show, ptr noundef null) #6
  %2 = getelementptr inbounds i8, ptr %1, i64 170
  %3 = load i8, ptr %2, align 2
  %4 = or i8 %3, 1
  store i8 %4, ptr %2, align 2
  ret i32 0
}

; Function Attrs: mustprogress nocallback nofree nosync nounwind willreturn memory(argmem: readwrite)
declare void @llvm.lifetime.start.p0(i64 immarg, ptr nocapture) #1

; Function Attrs: null_pointer_is_valid
declare dso_local ptr @proc_create_single_data(ptr noundef, i16 noundef zeroext, ptr noundef, ptr noundef, ptr noundef) local_unnamed_addr #2

; Function Attrs: fn_ret_thunk_extern nounwind null_pointer_is_valid
define internal noundef i32 @uptime_proc_show(ptr noundef %0, ptr nocapture readnone %1) #3 align 16 {
  %3 = alloca %struct.timespec64, align 8
  %4 = alloca %struct.kernel_cpustat, align 8
  br label %5

5:                                                ; preds = %2, %16
  %6 = phi i64 [ 0, %2 ], [ %25, %16 ]
  %7 = phi i64 [ 0, %2 ], [ %23, %16 ]
  %8 = load i64, ptr @__cpu_possible_mask, align 8
  %9 = shl nsw i64 -1, %6
  %10 = and i64 %8, %9
  %11 = icmp eq i64 %10, 0
  br i1 %11, label %.thread, label %12

12:                                               ; preds = %5
  %13 = call i64 asm "rep; bsf $1,$0", "=r,rm,~{dirflag},~{fpsr},~{flags}"(i64 %10) #7, !srcloc !5
  %14 = trunc i64 %13 to i32
  %15 = icmp ult i32 %14, 64
  br i1 %15, label %16, label %.thread

16:                                               ; preds = %12
  call void @llvm.lifetime.start.p0(i64 80, ptr nonnull %4) #6
  call void @llvm.memset.p0.i64(ptr noundef nonnull align 8 dereferenceable(80) %4, i8 0, i64 80, i1 false), !annotation !6
  %17 = and i64 %13, 4294967295
  %18 = getelementptr [64 x i64], ptr @__per_cpu_offset, i64 0, i64 %17
  %19 = load i64, ptr %18, align 8
  %20 = add i64 %19, ptrtoint (ptr @kernel_cpustat to i64)
  %21 = inttoptr i64 %20 to ptr
  call void @llvm.memcpy.p0.p0.i64(ptr noundef nonnull align 8 dereferenceable(80) %4, ptr noundef align 8 dereferenceable(80) %21, i64 80, i1 false)
  %22 = call i64 @get_idle_time(ptr noundef nonnull %4, i32 noundef %14) #6
  %23 = add i64 %22, %7
  call void @llvm.lifetime.end.p0(i64 80, ptr nonnull %4) #6
  %24 = add i64 %13, 1
  %25 = and i64 %24, 4294967295
  %26 = icmp ugt i64 %25, 63
  br i1 %26, label %.thread, label %5, !prof !7, !llvm.loop !8

.thread:                                          ; preds = %5, %16, %12
  %.lcssa = phi i64 [ %7, %5 ], [ %23, %16 ], [ %7, %12 ]
  %27 = call i64 @ktime_get_with_offset(i32 noundef 1) #6
  %28 = call { i64, i64 } @ns_to_timespec64(i64 noundef %27) #6
  %29 = extractvalue { i64, i64 } %28, 0
  %30 = extractvalue { i64, i64 } %28, 1
  %31 = call i64 asm "movq %gs:${1:P}, $0", "=r,p,~{dirflag},~{fpsr},~{flags}"(ptr nonnull @pcpu_hot) #8, !srcloc !11
  %32 = inttoptr i64 %31 to ptr
  %33 = getelementptr inbounds i8, ptr %32, i64 1872
  %34 = load ptr, ptr %33, align 16
  %35 = getelementptr inbounds i8, ptr %34, i64 48
  %36 = load ptr, ptr %35, align 8
  %37 = getelementptr inbounds i8, ptr %36, i64 56
  %38 = load i64, ptr %37, align 8
  %39 = getelementptr inbounds i8, ptr %36, i64 64
  %40 = load i64, ptr %39, align 8
  call void @llvm.lifetime.start.p0(i64 16, ptr nonnull %3)
  call void @llvm.memset.p0.i64(ptr noundef nonnull align 8 dereferenceable(16) %3, i8 0, i64 16, i1 false), !annotation !6
  %41 = add i64 %38, %29
  %42 = add i64 %40, %30
  call void @set_normalized_timespec64(ptr noundef nonnull %3, i64 noundef %41, i64 noundef %42) #6
  %43 = load i64, ptr %3, align 8
  %44 = getelementptr inbounds i8, ptr %3, i64 8
  %45 = load i64, ptr %44, align 8
  call void @llvm.lifetime.end.p0(i64 16, ptr nonnull %3)
  %46 = urem i64 %.lcssa, 1000000000
  %47 = trunc i64 %46 to i32
  %48 = udiv i64 %.lcssa, 1000000000
  %49 = sdiv i64 %45, 10000000
  %50 = udiv i32 %47, 10000000
  %51 = zext nneg i32 %50 to i64
  call void (ptr, ptr, ...) @seq_printf(ptr noundef %0, ptr noundef nonnull @.str.1, i64 noundef %43, i64 noundef %49, i64 noundef %48, i64 noundef %51) #6
  ret i32 0
}

; Function Attrs: mustprogress nocallback nofree nosync nounwind willreturn memory(argmem: readwrite)
declare void @llvm.lifetime.end.p0(i64 immarg, ptr nocapture) #1

; Function Attrs: mustprogress nocallback nofree nounwind willreturn memory(argmem: write)
declare void @llvm.memset.p0.i64(ptr nocapture writeonly, i8, i64, i1 immarg) #4

; Function Attrs: null_pointer_is_valid
declare dso_local i64 @get_idle_time(ptr noundef, i32 noundef) local_unnamed_addr #2

; Function Attrs: null_pointer_is_valid
declare dso_local void @seq_printf(ptr noundef, ptr noundef, ...) local_unnamed_addr #2

; Function Attrs: mustprogress nocallback nofree nounwind willreturn memory(argmem: readwrite)
declare void @llvm.memcpy.p0.p0.i64(ptr noalias nocapture writeonly, ptr noalias nocapture readonly, i64, i1 immarg) #5

; Function Attrs: null_pointer_is_valid
declare dso_local { i64, i64 } @ns_to_timespec64(i64 noundef) local_unnamed_addr #2

; Function Attrs: null_pointer_is_valid
declare dso_local i64 @ktime_get_with_offset(i32 noundef) local_unnamed_addr #2

; Function Attrs: null_pointer_is_valid
declare dso_local void @set_normalized_timespec64(ptr noundef, i64 noundef, i64 noundef) local_unnamed_addr #2


!llvm.module.flags = !{!0, !1, !2, !3, !4}

!0 = !{i32 1, !"wchar_size", i32 2}
!1 = !{i32 8, !"cf-protection-branch", i32 1}
!2 = !{i32 4, !"function_return_thunk_extern", i32 1}
!3 = !{i32 4, !"indirect_branch_cs_prefix", i32 1}
!4 = !{i32 4, !"SkipRaxSetup", i32 1}
!5 = !{i64 1057243}
!6 = !{!"auto-init"}
!7 = !{!"branch_weights", i32 1, i32 1999}
!8 = distinct !{!8, !9, !10}
!9 = !{!"llvm.loop.mustprogress"}
!10 = !{!"llvm.loop.unroll.disable"}
!11 = !{i64 2148123248}
